target datalayout = "e-m:e-p270:32:32-p271:32:32-p272:64:64-i64:64-i128:128-f80:128-n8:16:32:64-S128"
target triple = "x86_64-pc-linux-gnu"

%struct.port = type { %struct.pointf_s, double, ptr, i8, i8, i8, i8, i8, i8, ptr }
%struct.pointf_s = type { double, double }
%struct.Agedgeinfo_t = type { %struct.Agrec_s, ptr, %struct.port, %struct.port, ptr, ptr, ptr, ptr, i8, i8, i8, i8, i8, ptr, ptr, double, double, %struct.Ppoly_t, i8, i8, i16, i32, i32, i32, i16, i32, ptr }
%struct.Agrec_s = type { ptr, ptr }
%struct.Ppoly_t = type { ptr, i64 }
%struct.Agobj_s = type { %struct.Agtag_s, ptr }
%struct.Agtag_s = type { i32, i64 }
%struct.textlabel_t = type { ptr, ptr, ptr, i32, double, %struct.pointf_s, %struct.pointf_s, %struct.pointf_s, %union.anon.0, i8, i8, i8 }
%union.anon.0 = type { %struct.anon }
%struct.anon = type { ptr, i64 }

; Function Attrs: nounwind uwtable
define internal i32 @edgelblcmpfn(ptr noundef %0, ptr noundef %1) #0 {
  %3 = alloca i32, align 4
  %4 = alloca ptr, align 8
  %5 = alloca ptr, align 8
  %6 = alloca ptr, align 8
  %7 = alloca ptr, align 8
  %8 = alloca %struct.pointf_s, align 8
  %9 = alloca %struct.pointf_s, align 8
  %10 = alloca ptr, align 8
  %11 = alloca ptr, align 8
  %12 = alloca i32, align 4
  store ptr %0, ptr %4, align 8, !tbaa !118
  store ptr %1, ptr %5, align 8, !tbaa !118
  call void @llvm.lifetime.start.p0(i64 8, ptr %6) #13
  %13 = load ptr, ptr %4, align 8, !tbaa !118
  store ptr %13, ptr %6, align 8, !tbaa !20
  call void @llvm.lifetime.start.p0(i64 8, ptr %7) #13
  %14 = load ptr, ptr %5, align 8, !tbaa !118
  store ptr %14, ptr %7, align 8, !tbaa !20
  call void @llvm.lifetime.start.p0(i64 16, ptr %8) #13
  call void @llvm.lifetime.start.p0(i64 16, ptr %9) #13
  call void @llvm.lifetime.start.p0(i64 8, ptr %10) #13
  %15 = load ptr, ptr %6, align 8, !tbaa !20
  %16 = load ptr, ptr %15, align 8, !tbaa !78
  store ptr %16, ptr %10, align 8, !tbaa !78
  call void @llvm.lifetime.start.p0(i64 8, ptr %11) #13
  %17 = load ptr, ptr %7, align 8, !tbaa !20
  %18 = load ptr, ptr %17, align 8, !tbaa !78
  store ptr %18, ptr %11, align 8, !tbaa !78
  %19 = load ptr, ptr %10, align 8, !tbaa !78
  %20 = getelementptr inbounds nuw %struct.Agobj_s, ptr %19, i32 0, i32 1
  %21 = load ptr, ptr %20, align 8, !tbaa !22
  %22 = getelementptr inbounds nuw %struct.Agedgeinfo_t, ptr %21, i32 0, i32 4
  %23 = load ptr, ptr %22, align 8, !tbaa !79
  %24 = icmp ne ptr %23, null
  br i1 %24, label %25, label %74

25:                                               ; preds = %2
  %26 = load ptr, ptr %11, align 8, !tbaa !78
  %27 = getelementptr inbounds nuw %struct.Agobj_s, ptr %26, i32 0, i32 1
  %28 = load ptr, ptr %27, align 8, !tbaa !22
  %29 = getelementptr inbounds nuw %struct.Agedgeinfo_t, ptr %28, i32 0, i32 4
  %30 = load ptr, ptr %29, align 8, !tbaa !79
  %31 = icmp ne ptr %30, null
  br i1 %31, label %32, label %73

32:                                               ; preds = %25
  %33 = load ptr, ptr %10, align 8, !tbaa !78
  %34 = getelementptr inbounds nuw %struct.Agobj_s, ptr %33, i32 0, i32 1
  %35 = load ptr, ptr %34, align 8, !tbaa !22
  %36 = getelementptr inbounds nuw %struct.Agedgeinfo_t, ptr %35, i32 0, i32 4
  %37 = load ptr, ptr %36, align 8, !tbaa !79
  %38 = getelementptr inbounds nuw %struct.textlabel_t, ptr %37, i32 0, i32 5
  call void @llvm.memcpy.p0.p0.i64(ptr align 8 %8, ptr align 8 %38, i64 16, i1 false), !tbaa.struct !84
  %39 = load ptr, ptr %11, align 8, !tbaa !78
  %40 = getelementptr inbounds nuw %struct.Agobj_s, ptr %39, i32 0, i32 1
  %41 = load ptr, ptr %40, align 8, !tbaa !22
  %42 = getelementptr inbounds nuw %struct.Agedgeinfo_t, ptr %41, i32 0, i32 4
  %43 = load ptr, ptr %42, align 8, !tbaa !79
  %44 = getelementptr inbounds nuw %struct.textlabel_t, ptr %43, i32 0, i32 5
  call void @llvm.memcpy.p0.p0.i64(ptr align 8 %9, ptr align 8 %44, i64 16, i1 false), !tbaa.struct !84
  %45 = getelementptr inbounds nuw %struct.pointf_s, ptr %8, i32 0, i32 0
  %46 = load double, ptr %45, align 8, !tbaa !155
  %47 = getelementptr inbounds nuw %struct.pointf_s, ptr %9, i32 0, i32 0
  %48 = load double, ptr %47, align 8, !tbaa !155
  %49 = fcmp ogt double %46, %48
  br i1 %49, label %50, label %51

50:                                               ; preds = %32
  store i32 -1, ptr %3, align 4
  store i32 1, ptr %12, align 4
  br label %83

51:                                               ; preds = %32
  %52 = getelementptr inbounds nuw %struct.pointf_s, ptr %8, i32 0, i32 0
  %53 = load double, ptr %52, align 8, !tbaa !155
  %54 = getelementptr inbounds nuw %struct.pointf_s, ptr %9, i32 0, i32 0
  %55 = load double, ptr %54, align 8, !tbaa !155
  %56 = fcmp olt double %53, %55
  br i1 %56, label %57, label %58

57:                                               ; preds = %51
  store i32 1, ptr %3, align 4
  store i32 1, ptr %12, align 4
  br label %83

58:                                               ; preds = %51
  %59 = getelementptr inbounds nuw %struct.pointf_s, ptr %8, i32 0, i32 1
  %60 = load double, ptr %59, align 8, !tbaa !154
  %61 = getelementptr inbounds nuw %struct.pointf_s, ptr %9, i32 0, i32 1
  %62 = load double, ptr %61, align 8, !tbaa !154
  %63 = fcmp ogt double %60, %62
  br i1 %63, label %64, label %65

64:                                               ; preds = %58
  store i32 -1, ptr %3, align 4
  store i32 1, ptr %12, align 4
  br label %83

65:                                               ; preds = %58
  %66 = getelementptr inbounds nuw %struct.pointf_s, ptr %8, i32 0, i32 1
  %67 = load double, ptr %66, align 8, !tbaa !154
  %68 = getelementptr inbounds nuw %struct.pointf_s, ptr %9, i32 0, i32 1
  %69 = load double, ptr %68, align 8, !tbaa !154
  %70 = fcmp olt double %67, %69
  br i1 %70, label %71, label %72

71:                                               ; preds = %65
  store i32 1, ptr %3, align 4
  store i32 1, ptr %12, align 4
  br label %83

72:                                               ; preds = %65
  store i32 0, ptr %3, align 4
  store i32 1, ptr %12, align 4
  br label %83

73:                                               ; preds = %25
  store i32 -1, ptr %3, align 4
  store i32 1, ptr %12, align 4
  br label %83

74:                                               ; preds = %2
  %75 = load ptr, ptr %11, align 8, !tbaa !78
  %76 = getelementptr inbounds nuw %struct.Agobj_s, ptr %75, i32 0, i32 1
  %77 = load ptr, ptr %76, align 8, !tbaa !22
  %78 = getelementptr inbounds nuw %struct.Agedgeinfo_t, ptr %77, i32 0, i32 4
  %79 = load ptr, ptr %78, align 8, !tbaa !79
  %80 = icmp ne ptr %79, null
  br i1 %80, label %81, label %82

81:                                               ; preds = %74
  store i32 1, ptr %3, align 4
  store i32 1, ptr %12, align 4
  br label %83

82:                                               ; preds = %74
  store i32 0, ptr %3, align 4
  store i32 1, ptr %12, align 4
  br label %83

83:                                               ; preds = %82, %81, %73, %72, %71, %64, %57, %50
  call void @llvm.lifetime.end.p0(i64 8, ptr %11) #13
  call void @llvm.lifetime.end.p0(i64 8, ptr %10) #13
  call void @llvm.lifetime.end.p0(i64 16, ptr %9) #13
  call void @llvm.lifetime.end.p0(i64 16, ptr %8) #13
  call void @llvm.lifetime.end.p0(i64 8, ptr %7) #13
  call void @llvm.lifetime.end.p0(i64 8, ptr %6) #13
  %84 = load i32, ptr %3, align 4
  ret i32 %84
}