; Function Attrs: mustprogress nofree norecurse nosync nounwind willreturn memory(read, inaccessiblemem: none) uwtable
define internal range(i32 -1, 2) i32 @edgelblcmpfn(ptr noundef readonly captures(none) %0, ptr noundef readonly captures(none) %1) #14 {
  %3 = load ptr, ptr %0, align 8, !tbaa !74
  %4 = load ptr, ptr %1, align 8, !tbaa !74
  %5 = getelementptr inbounds nuw i8, ptr %3, i64 16
  %6 = load ptr, ptr %5, align 8, !tbaa !16
  %7 = getelementptr inbounds nuw i8, ptr %6, i64 120
  %8 = load ptr, ptr %7, align 8, !tbaa !64
  %.not = icmp eq ptr %8, null
  %9 = getelementptr inbounds nuw i8, ptr %4, i64 16
  %10 = load ptr, ptr %9, align 8, !tbaa !16
  %11 = getelementptr inbounds nuw i8, ptr %10, i64 120
  %12 = load ptr, ptr %11, align 8, !tbaa !64
  br i1 %.not, label %24, label %13

13:                                               ; preds = %2
  %.not18 = icmp eq ptr %12, null
  br i1 %.not18, label %25, label %14

14:                                               ; preds = %13
  %15 = getelementptr inbounds nuw i8, ptr %8, i64 40
  %.sroa.07.0.copyload = load double, ptr %15, align 8, !tbaa !70
  %.sroa.59.0..sroa_idx = getelementptr inbounds nuw i8, ptr %8, i64 48
  %.sroa.59.0.copyload = load double, ptr %.sroa.59.0..sroa_idx, align 8, !tbaa !70
  %16 = getelementptr inbounds nuw i8, ptr %12, i64 40
  %.sroa.0.0.copyload = load double, ptr %16, align 8, !tbaa !70
  %.sroa.5.0..sroa_idx = getelementptr inbounds nuw i8, ptr %12, i64 48
  %.sroa.5.0.copyload = load double, ptr %.sroa.5.0..sroa_idx, align 8, !tbaa !70
  %17 = fcmp ogt double %.sroa.07.0.copyload, %.sroa.0.0.copyload
  br i1 %17, label %25, label %18

18:                                               ; preds = %14
  %19 = fcmp olt double %.sroa.07.0.copyload, %.sroa.0.0.copyload
  br i1 %19, label %25, label %20

20:                                               ; preds = %18
  %21 = fcmp ogt double %.sroa.59.0.copyload, %.sroa.5.0.copyload
  br i1 %21, label %25, label %22

22:                                               ; preds = %20
  %23 = fcmp olt double %.sroa.59.0.copyload, %.sroa.5.0.copyload
  %. = zext i1 %23 to i32
  br label %25

24:                                               ; preds = %2
  %.not17 = icmp ne ptr %12, null
  %.19 = zext i1 %.not17 to i32
  br label %25

25:                                               ; preds = %24, %13, %22, %20, %18, %14
  %.0 = phi i32 [ -1, %14 ], [ 1, %18 ], [ -1, %20 ], [ %., %22 ], [ -1, %13 ], [ %.19, %24 ]
  ret i32 %.0
}